target datalayout = "e-m:e-p270:32:32-p271:32:32-p272:64:64-i64:64-i128:128-f80:128-n8:16:32:64-S128"
target triple = "x86_64-pc-linux-gnu"

%struct.SMgrRelationData = type { %struct.RelFileLocatorBackend, i32, [4 x i32], i32, [4 x i32], [4 x ptr], i32, %struct.dlist_node }
%struct.RelFileLocatorBackend = type { %struct.RelFileLocator, i32 }
%struct.RelFileLocator = type { i32, i32, i32 }
%struct.dlist_node = type { ptr, ptr }
%struct._MdfdVec = type { i32, i32 }
%struct.FileTag = type { i16, i16, %struct.RelFileLocator, i64 }
%struct.instr_time = type { i64 }

@track_io_timing = external global i8, align 1
@io_direct_flags = external global i32, align 4
@.str.19 = private unnamed_addr constant [6 x i8] c"%s.%u\00", align 1

; Function Attrs: inlinehint nounwind uwtable
define internal i32 @_mdfd_open_flags() #3 {
  %1 = alloca i32, align 4
  call void @llvm.lifetime.start.p0(i64 4, ptr %1) #10
  store i32 2, ptr %1, align 4
  %2 = load i32, ptr @io_direct_flags, align 4
  %3 = and i32 %2, 1
  %4 = icmp ne i32 %3, 0
  br i1 %4, label %5, label %8

5:                                                ; preds = %0
  %6 = load i32, ptr %1, align 4
  %7 = or i32 %6, 16384
  store i32 %7, ptr %1, align 4
  br label %8

8:                                                ; preds = %5, %0
  %9 = load i32, ptr %1, align 4
  call void @llvm.lifetime.end.p0(i64 4, ptr %1) #10
  ret i32 %9
}

; Function Attrs: nounwind uwtable
define internal ptr @_mdfd_segpath(ptr noundef %0, i32 noundef %1, i32 noundef %2) #0 {
  %4 = alloca ptr, align 8
  %5 = alloca i32, align 4
  %6 = alloca i32, align 4
  %7 = alloca ptr, align 8
  %8 = alloca ptr, align 8
  store ptr %0, ptr %4, align 8
  store i32 %1, ptr %5, align 4
  store i32 %2, ptr %6, align 4
  call void @llvm.lifetime.start.p0(i64 8, ptr %7) #10
  call void @llvm.lifetime.start.p0(i64 8, ptr %8) #10
  %9 = load ptr, ptr %4, align 8
  %10 = getelementptr inbounds nuw %struct.SMgrRelationData, ptr %9, i32 0, i32 0
  %11 = getelementptr inbounds nuw %struct.RelFileLocatorBackend, ptr %10, i32 0, i32 0
  %12 = getelementptr inbounds nuw %struct.RelFileLocator, ptr %11, i32 0, i32 1
  %13 = load i32, ptr %12, align 4
  %14 = load ptr, ptr %4, align 8
  %15 = getelementptr inbounds nuw %struct.SMgrRelationData, ptr %14, i32 0, i32 0
  %16 = getelementptr inbounds nuw %struct.RelFileLocatorBackend, ptr %15, i32 0, i32 0
  %17 = getelementptr inbounds nuw %struct.RelFileLocator, ptr %16, i32 0, i32 0
  %18 = load i32, ptr %17, align 8
  %19 = load ptr, ptr %4, align 8
  %20 = getelementptr inbounds nuw %struct.SMgrRelationData, ptr %19, i32 0, i32 0
  %21 = getelementptr inbounds nuw %struct.RelFileLocatorBackend, ptr %20, i32 0, i32 0
  %22 = getelementptr inbounds nuw %struct.RelFileLocator, ptr %21, i32 0, i32 2
  %23 = load i32, ptr %22, align 8
  %24 = load ptr, ptr %4, align 8
  %25 = getelementptr inbounds nuw %struct.SMgrRelationData, ptr %24, i32 0, i32 0
  %26 = getelementptr inbounds nuw %struct.RelFileLocatorBackend, ptr %25, i32 0, i32 1
  %27 = load i32, ptr %26, align 4
  %28 = load i32, ptr %5, align 4
  %29 = call ptr @GetRelationPath(i32 noundef %13, i32 noundef %18, i32 noundef %23, i32 noundef %27, i32 noundef %28)
  store ptr %29, ptr %7, align 8
  %30 = load i32, ptr %6, align 4
  %31 = icmp ugt i32 %30, 0
  br i1 %31, label %32, label %37

32:                                               ; preds = %3
  %33 = load ptr, ptr %7, align 8
  %34 = load i32, ptr %6, align 4
  %35 = call ptr (ptr, ...) @psprintf(ptr noundef @.str.19, ptr noundef %33, i32 noundef %34)
  store ptr %35, ptr %8, align 8
  %36 = load ptr, ptr %7, align 8
  call void @pfree(ptr noundef %36)
  br label %39

37:                                               ; preds = %3
  %38 = load ptr, ptr %7, align 8
  store ptr %38, ptr %8, align 8
  br label %39

39:                                               ; preds = %37, %32
  %40 = load ptr, ptr %8, align 8
  call void @llvm.lifetime.end.p0(i64 8, ptr %8) #10
  call void @llvm.lifetime.end.p0(i64 8, ptr %7) #10
  ret ptr %40
}

; Function Attrs: nounwind uwtable
define dso_local i32 @mdsyncfiletag(ptr noundef %0, ptr noundef %1) #0 {
  %3 = alloca i32, align 4
  %4 = alloca ptr, align 8
  %5 = alloca ptr, align 8
  %6 = alloca ptr, align 8
  %7 = alloca { i64, i32 }, align 4
  %8 = alloca i32, align 4
  %9 = alloca %struct.instr_time, align 8
  %10 = alloca i8, align 1
  %11 = alloca i32, align 4
  %12 = alloca i32, align 4
  %13 = alloca ptr, align 8
  %14 = alloca i32, align 4
  %15 = alloca %struct.instr_time, align 8
  store ptr %0, ptr %4, align 8
  store ptr %1, ptr %5, align 8
  call void @llvm.lifetime.start.p0(i64 8, ptr %6) #10
  %16 = load ptr, ptr %4, align 8
  %17 = getelementptr inbounds nuw %struct.FileTag, ptr %16, i32 0, i32 2
  call void @llvm.memcpy.p0.p0.i64(ptr align 4 %7, ptr align 4 %17, i64 12, i1 false)
  %18 = getelementptr inbounds nuw { i64, i32 }, ptr %7, i32 0, i32 0
  %19 = load i64, ptr %18, align 4
  %20 = getelementptr inbounds nuw { i64, i32 }, ptr %7, i32 0, i32 1
  %21 = load i32, ptr %20, align 4
  %22 = call ptr @smgropen(i64 %19, i32 %21, i32 noundef -1)
  store ptr %22, ptr %6, align 8
  call void @llvm.lifetime.start.p0(i64 4, ptr %8) #10
  call void @llvm.lifetime.start.p0(i64 8, ptr %9) #10
  call void @llvm.lifetime.start.p0(i64 1, ptr %10) #10
  call void @llvm.lifetime.start.p0(i64 4, ptr %11) #10
  call void @llvm.lifetime.start.p0(i64 4, ptr %12) #10
  %23 = load ptr, ptr %4, align 8
  %24 = getelementptr inbounds nuw %struct.FileTag, ptr %23, i32 0, i32 3
  %25 = load i64, ptr %24, align 8
  %26 = load ptr, ptr %6, align 8
  %27 = getelementptr inbounds nuw %struct.SMgrRelationData, ptr %26, i32 0, i32 4
  %28 = load ptr, ptr %4, align 8
  %29 = getelementptr inbounds nuw %struct.FileTag, ptr %28, i32 0, i32 1
  %30 = load i16, ptr %29, align 2
  %31 = sext i16 %30 to i64
  %32 = getelementptr inbounds [4 x i32], ptr %27, i64 0, i64 %31
  %33 = load i32, ptr %32, align 4
  %34 = sext i32 %33 to i64
  %35 = icmp ult i64 %25, %34
  br i1 %35, label %36, label %55

36:                                               ; preds = %2
  %37 = load ptr, ptr %6, align 8
  %38 = getelementptr inbounds nuw %struct.SMgrRelationData, ptr %37, i32 0, i32 5
  %39 = load ptr, ptr %4, align 8
  %40 = getelementptr inbounds nuw %struct.FileTag, ptr %39, i32 0, i32 1
  %41 = load i16, ptr %40, align 2
  %42 = sext i16 %41 to i64
  %43 = getelementptr inbounds [4 x ptr], ptr %38, i64 0, i64 %42
  %44 = load ptr, ptr %43, align 8
  %45 = load ptr, ptr %4, align 8
  %46 = getelementptr inbounds nuw %struct.FileTag, ptr %45, i32 0, i32 3
  %47 = load i64, ptr %46, align 8
  %48 = getelementptr inbounds nuw %struct._MdfdVec, ptr %44, i64 %47
  %49 = getelementptr inbounds nuw %struct._MdfdVec, ptr %48, i32 0, i32 0
  %50 = load i32, ptr %49, align 4
  store i32 %50, ptr %8, align 4
  %51 = load ptr, ptr %5, align 8
  %52 = load i32, ptr %8, align 4
  %53 = call ptr @FilePathName(i32 noundef %52)
  %54 = call i64 @strlcpy(ptr noundef %51, ptr noundef %53, i64 noundef 1024)
  store i8 0, ptr %10, align 1
  br label %80

55:                                               ; preds = %2
  call void @llvm.lifetime.start.p0(i64 8, ptr %13) #10
  %56 = load ptr, ptr %6, align 8
  %57 = load ptr, ptr %4, align 8
  %58 = getelementptr inbounds nuw %struct.FileTag, ptr %57, i32 0, i32 1
  %59 = load i16, ptr %58, align 2
  %60 = sext i16 %59 to i32
  %61 = load ptr, ptr %4, align 8
  %62 = getelementptr inbounds nuw %struct.FileTag, ptr %61, i32 0, i32 3
  %63 = load i64, ptr %62, align 8
  %64 = trunc i64 %63 to i32
  %65 = call ptr @_mdfd_segpath(ptr noundef %56, i32 noundef %60, i32 noundef %64)
  store ptr %65, ptr %13, align 8
  %66 = load ptr, ptr %5, align 8
  %67 = load ptr, ptr %13, align 8
  %68 = call i64 @strlcpy(ptr noundef %66, ptr noundef %67, i64 noundef 1024)
  %69 = load ptr, ptr %13, align 8
  call void @pfree(ptr noundef %69)
  %70 = load ptr, ptr %5, align 8
  %71 = call i32 @_mdfd_open_flags()
  %72 = call i32 @PathNameOpenFile(ptr noundef %70, i32 noundef %71)
  store i32 %72, ptr %8, align 4
  %73 = load i32, ptr %8, align 4
  %74 = icmp slt i32 %73, 0
  br i1 %74, label %75, label %76

75:                                               ; preds = %55
  store i32 -1, ptr %3, align 4
  store i32 1, ptr %14, align 4
  br label %77

76:                                               ; preds = %55
  store i8 1, ptr %10, align 1
  store i32 0, ptr %14, align 4
  br label %77

77:                                               ; preds = %76, %75
  call void @llvm.lifetime.end.p0(i64 8, ptr %13) #10
  %78 = load i32, ptr %14, align 4
  switch i32 %78, label %99 [
    i32 0, label %79
  ]

79:                                               ; preds = %77
  br label %80

80:                                               ; preds = %79, %36
  call void @llvm.lifetime.start.p0(i64 8, ptr %15) #10
  %81 = load i8, ptr @track_io_timing, align 1, !range !4, !noundef !5
  %82 = trunc i8 %81 to i1
  %83 = call i64 @pgstat_prepare_io_time(i1 noundef zeroext %82)
  %84 = getelementptr inbounds nuw %struct.instr_time, ptr %15, i32 0, i32 0
  store i64 %83, ptr %84, align 8
  call void @llvm.memcpy.p0.p0.i64(ptr align 8 %9, ptr align 8 %15, i64 8, i1 false)
  call void @llvm.lifetime.end.p0(i64 8, ptr %15) #10
  %85 = load i32, ptr %8, align 4
  %86 = call i32 @FileSync(i32 noundef %85, i32 noundef 167772178)
  store i32 %86, ptr %11, align 4
  %87 = call ptr @__errno_location() #11
  %88 = load i32, ptr %87, align 4
  store i32 %88, ptr %12, align 4
  %89 = load i8, ptr %10, align 1, !range !4, !noundef !5
  %90 = trunc i8 %89 to i1
  br i1 %90, label %91, label %93

91:                                               ; preds = %80
  %92 = load i32, ptr %8, align 4
  call void @FileClose(i32 noundef %92)
  br label %93

93:                                               ; preds = %91, %80
  %94 = getelementptr inbounds nuw %struct.instr_time, ptr %9, i32 0, i32 0
  %95 = load i64, ptr %94, align 8
  call void @pgstat_count_io_op_time(i32 noundef 0, i32 noundef 3, i32 noundef 1, i64 %95, i32 noundef 1, i64 noundef 0)
  %96 = load i32, ptr %12, align 4
  %97 = call ptr @__errno_location() #11
  store i32 %96, ptr %97, align 4
  %98 = load i32, ptr %11, align 4
  store i32 %98, ptr %3, align 4
  store i32 1, ptr %14, align 4
  br label %99

99:                                               ; preds = %93, %77
  call void @llvm.lifetime.end.p0(i64 4, ptr %12) #10
  call void @llvm.lifetime.end.p0(i64 4, ptr %11) #10
  call void @llvm.lifetime.end.p0(i64 1, ptr %10) #10
  call void @llvm.lifetime.end.p0(i64 8, ptr %9) #10
  call void @llvm.lifetime.end.p0(i64 4, ptr %8) #10
  call void @llvm.lifetime.end.p0(i64 8, ptr %6) #10
  %100 = load i32, ptr %3, align 4
  ret i32 %100
}