; Function Attrs: nounwind uwtable
define dso_local i32 @mdsyncfiletag(ptr noundef readonly captures(none) %0, ptr noundef %1) local_unnamed_addr #0 {
  %3 = getelementptr inbounds nuw i8, ptr %0, i64 4
  %.sroa.010.0.copyload = load i64, ptr %3, align 4
  %.sroa.2.0..sroa_idx = getelementptr inbounds nuw i8, ptr %0, i64 12
  %.sroa.2.0.copyload = load i32, ptr %.sroa.2.0..sroa_idx, align 4
  %4 = tail call ptr @smgropen(i64 %.sroa.010.0.copyload, i32 %.sroa.2.0.copyload, i32 noundef -1) #15
  %5 = getelementptr inbounds nuw i8, ptr %0, i64 16
  %6 = load i64, ptr %5, align 8
  %7 = getelementptr inbounds nuw i8, ptr %4, i64 40
  %8 = getelementptr inbounds nuw i8, ptr %0, i64 2
  %9 = load i16, ptr %8, align 2
  %10 = sext i16 %9 to i64
  %11 = getelementptr inbounds [4 x i32], ptr %7, i64 0, i64 %10
  %12 = load i32, ptr %11, align 4
  %13 = sext i32 %12 to i64
  %.not = icmp ult i64 %6, %13
  br i1 %.not, label %14, label %22

14:                                               ; preds = %2
  %15 = getelementptr inbounds nuw i8, ptr %4, i64 56
  %16 = getelementptr inbounds [4 x ptr], ptr %15, i64 0, i64 %10
  %17 = load ptr, ptr %16, align 8
  %18 = getelementptr inbounds nuw %struct._MdfdVec, ptr %17, i64 %6
  %19 = load i32, ptr %18, align 4
  %20 = tail call ptr @FilePathName(i32 noundef %19) #15
  %21 = tail call i64 @strlcpy(ptr noundef nonnull dereferenceable(1) %1, ptr noundef nonnull dereferenceable(1) %20, i64 noundef 1024) #15
  br label %40

22:                                               ; preds = %2
  %23 = sext i16 %9 to i32
  %24 = trunc i64 %6 to i32
  %25 = getelementptr inbounds nuw i8, ptr %4, i64 4
  %26 = load i32, ptr %25, align 4
  %27 = load i32, ptr %4, align 8
  %28 = getelementptr inbounds nuw i8, ptr %4, i64 8
  %29 = load i32, ptr %28, align 8
  %30 = getelementptr inbounds nuw i8, ptr %4, i64 12
  %31 = load i32, ptr %30, align 4
  %32 = tail call ptr @GetRelationPath(i32 noundef %26, i32 noundef %27, i32 noundef %29, i32 noundef %31, i32 noundef %23) #15
  %.not.i = icmp eq i32 %24, 0
  br i1 %.not.i, label %_mdfd_segpath.exit, label %33

33:                                               ; preds = %22
  %34 = tail call ptr (ptr, ...) @psprintf(ptr noundef nonnull @.str.19, ptr noundef %32, i32 noundef %24) #15
  tail call void @pfree(ptr noundef %32) #15
  br label %_mdfd_segpath.exit

_mdfd_segpath.exit:                               ; preds = %22, %33
  %.0.i = phi ptr [ %34, %33 ], [ %32, %22 ]
  %35 = tail call i64 @strlcpy(ptr noundef nonnull dereferenceable(1) %1, ptr noundef nonnull dereferenceable(1) %.0.i, i64 noundef 1024) #15
  tail call void @pfree(ptr noundef nonnull %.0.i) #15
  %36 = load i32, ptr @io_direct_flags, align 4
  %37 = and i32 %36, 1
  %.not.i30 = icmp eq i32 %37, 0
  %spec.select.i = select i1 %.not.i30, i32 2, i32 16386
  %38 = tail call i32 @PathNameOpenFile(ptr noundef nonnull %1, i32 noundef %spec.select.i) #15
  %39 = icmp sgt i32 %38, -1
  br i1 %39, label %40, label %49

40:                                               ; preds = %_mdfd_segpath.exit, %14
  %.026 = phi i32 [ %19, %14 ], [ %38, %_mdfd_segpath.exit ]
  %41 = load i8, ptr @track_io_timing, align 1, !range !4, !noundef !5
  %42 = trunc nuw i8 %41 to i1
  %43 = tail call i64 @pgstat_prepare_io_time(i1 noundef zeroext %42) #15
  %44 = tail call i32 @FileSync(i32 noundef %.026, i32 noundef 167772178) #15
  %45 = tail call ptr @__errno_location() #16
  %46 = load i32, ptr %45, align 4
  br i1 %.not, label %48, label %47

47:                                               ; preds = %40
  tail call void @FileClose(i32 noundef %.026) #15
  br label %48

48:                                               ; preds = %47, %40
  tail call void @pgstat_count_io_op_time(i32 noundef 0, i32 noundef 3, i32 noundef 1, i64 %43, i32 noundef 1, i64 noundef 0) #15
  store i32 %46, ptr %45, align 4
  br label %49

49:                                               ; preds = %_mdfd_segpath.exit, %48
  %.1 = phi i32 [ %44, %48 ], [ -1, %_mdfd_segpath.exit ]
  ret i32 %.1
}